ARM GAS  C:\Users\Wojciech\AppData\Local\Temp\ccemUAgQ.s 			page 1


   1              		.cpu cortex-m0
   2              		.eabi_attribute 20, 1
   3              		.eabi_attribute 21, 1
   4              		.eabi_attribute 23, 3
   5              		.eabi_attribute 24, 1
   6              		.eabi_attribute 25, 1
   7              		.eabi_attribute 26, 1
   8              		.eabi_attribute 30, 1
   9              		.eabi_attribute 34, 0
  10              		.eabi_attribute 18, 4
  11              		.file	"can.c"
  12              		.text
  13              	.Ltext0:
  14              		.cfi_sections	.debug_frame
  15              		.section	.text.MX_CAN_Init,"ax",%progbits
  16              		.align	1
  17              		.global	MX_CAN_Init
  18              		.syntax unified
  19              		.code	16
  20              		.thumb_func
  21              		.fpu softvfp
  23              	MX_CAN_Init:
  24              	.LFB35:
  25              		.file 1 "Src/can.c"
   1:Src/can.c     **** /**
   2:Src/can.c     ****   ******************************************************************************
   3:Src/can.c     ****   * File Name          : CAN.c
   4:Src/can.c     ****   * Description        : This file provides code for the configuration
   5:Src/can.c     ****   *                      of the CAN instances.
   6:Src/can.c     ****   ******************************************************************************
   7:Src/can.c     ****   ** This notice applies to any and all portions of this file
   8:Src/can.c     ****   * that are not between comment pairs USER CODE BEGIN and
   9:Src/can.c     ****   * USER CODE END. Other portions of this file, whether 
  10:Src/can.c     ****   * inserted by the user or by software development tools
  11:Src/can.c     ****   * are owned by their respective copyright owners.
  12:Src/can.c     ****   *
  13:Src/can.c     ****   * COPYRIGHT(c) 2017 STMicroelectronics
  14:Src/can.c     ****   *
  15:Src/can.c     ****   * Redistribution and use in source and binary forms, with or without modification,
  16:Src/can.c     ****   * are permitted provided that the following conditions are met:
  17:Src/can.c     ****   *   1. Redistributions of source code must retain the above copyright notice,
  18:Src/can.c     ****   *      this list of conditions and the following disclaimer.
  19:Src/can.c     ****   *   2. Redistributions in binary form must reproduce the above copyright notice,
  20:Src/can.c     ****   *      this list of conditions and the following disclaimer in the documentation
  21:Src/can.c     ****   *      and/or other materials provided with the distribution.
  22:Src/can.c     ****   *   3. Neither the name of STMicroelectronics nor the names of its contributors
  23:Src/can.c     ****   *      may be used to endorse or promote products derived from this software
  24:Src/can.c     ****   *      without specific prior written permission.
  25:Src/can.c     ****   *
  26:Src/can.c     ****   * THIS SOFTWARE IS PROVIDED BY THE COPYRIGHT HOLDERS AND CONTRIBUTORS "AS IS"
  27:Src/can.c     ****   * AND ANY EXPRESS OR IMPLIED WARRANTIES, INCLUDING, BUT NOT LIMITED TO, THE
  28:Src/can.c     ****   * IMPLIED WARRANTIES OF MERCHANTABILITY AND FITNESS FOR A PARTICULAR PURPOSE ARE
  29:Src/can.c     ****   * DISCLAIMED. IN NO EVENT SHALL THE COPYRIGHT HOLDER OR CONTRIBUTORS BE LIABLE
  30:Src/can.c     ****   * FOR ANY DIRECT, INDIRECT, INCIDENTAL, SPECIAL, EXEMPLARY, OR CONSEQUENTIAL
  31:Src/can.c     ****   * DAMAGES (INCLUDING, BUT NOT LIMITED TO, PROCUREMENT OF SUBSTITUTE GOODS OR
  32:Src/can.c     ****   * SERVICES; LOSS OF USE, DATA, OR PROFITS; OR BUSINESS INTERRUPTION) HOWEVER
  33:Src/can.c     ****   * CAUSED AND ON ANY THEORY OF LIABILITY, WHETHER IN CONTRACT, STRICT LIABILITY,
ARM GAS  C:\Users\Wojciech\AppData\Local\Temp\ccemUAgQ.s 			page 2


  34:Src/can.c     ****   * OR TORT (INCLUDING NEGLIGENCE OR OTHERWISE) ARISING IN ANY WAY OUT OF THE USE
  35:Src/can.c     ****   * OF THIS SOFTWARE, EVEN IF ADVISED OF THE POSSIBILITY OF SUCH DAMAGE.
  36:Src/can.c     ****   *
  37:Src/can.c     ****   ******************************************************************************
  38:Src/can.c     ****   */
  39:Src/can.c     **** 
  40:Src/can.c     **** /* Includes ------------------------------------------------------------------*/
  41:Src/can.c     **** #include "can.h"
  42:Src/can.c     **** 
  43:Src/can.c     **** #include "gpio.h"
  44:Src/can.c     **** 
  45:Src/can.c     **** /* USER CODE BEGIN 0 */
  46:Src/can.c     **** 
  47:Src/can.c     **** /* USER CODE END 0 */
  48:Src/can.c     **** 
  49:Src/can.c     **** CAN_HandleTypeDef hcan;
  50:Src/can.c     **** 
  51:Src/can.c     **** /* CAN init function */
  52:Src/can.c     **** void MX_CAN_Init(void)
  53:Src/can.c     **** {
  26              		.loc 1 53 0
  27              		.cfi_startproc
  28              		@ args = 0, pretend = 0, frame = 0
  29              		@ frame_needed = 0, uses_anonymous_args = 0
  30 0000 10B5     		push	{r4, lr}
  31              	.LCFI0:
  32              		.cfi_def_cfa_offset 8
  33              		.cfi_offset 4, -8
  34              		.cfi_offset 14, -4
  54:Src/can.c     **** 
  55:Src/can.c     ****   hcan.Instance = CAN;
  35              		.loc 1 55 0
  36 0002 1048     		ldr	r0, .L4
  37 0004 104B     		ldr	r3, .L4+4
  38 0006 0360     		str	r3, [r0]
  56:Src/can.c     ****   hcan.Init.Prescaler = 8;
  39              		.loc 1 56 0
  40 0008 0823     		movs	r3, #8
  41 000a 4360     		str	r3, [r0, #4]
  57:Src/can.c     ****   hcan.Init.Mode = CAN_MODE_NORMAL;
  42              		.loc 1 57 0
  43 000c 0023     		movs	r3, #0
  44 000e 8360     		str	r3, [r0, #8]
  58:Src/can.c     ****   hcan.Init.SJW = CAN_SJW_3TQ;
  45              		.loc 1 58 0
  46 0010 8022     		movs	r2, #128
  47 0012 9204     		lsls	r2, r2, #18
  48 0014 C260     		str	r2, [r0, #12]
  59:Src/can.c     ****   hcan.Init.BS1 = CAN_BS1_14TQ;
  49              		.loc 1 59 0
  50 0016 D022     		movs	r2, #208
  51 0018 1203     		lsls	r2, r2, #12
  52 001a 0261     		str	r2, [r0, #16]
  60:Src/can.c     ****   hcan.Init.BS2 = CAN_BS2_5TQ;
  53              		.loc 1 60 0
  54 001c 8022     		movs	r2, #128
  55 001e D203     		lsls	r2, r2, #15
ARM GAS  C:\Users\Wojciech\AppData\Local\Temp\ccemUAgQ.s 			page 3


  56 0020 4261     		str	r2, [r0, #20]
  61:Src/can.c     ****   hcan.Init.TTCM = DISABLE;
  57              		.loc 1 61 0
  58 0022 8361     		str	r3, [r0, #24]
  62:Src/can.c     ****   hcan.Init.ABOM = DISABLE;
  59              		.loc 1 62 0
  60 0024 C361     		str	r3, [r0, #28]
  63:Src/can.c     ****   hcan.Init.AWUM = DISABLE;
  61              		.loc 1 63 0
  62 0026 0362     		str	r3, [r0, #32]
  64:Src/can.c     ****   hcan.Init.NART = DISABLE;
  63              		.loc 1 64 0
  64 0028 4362     		str	r3, [r0, #36]
  65:Src/can.c     ****   hcan.Init.RFLM = DISABLE;
  65              		.loc 1 65 0
  66 002a 8362     		str	r3, [r0, #40]
  66:Src/can.c     ****   hcan.Init.TXFP = DISABLE;
  67              		.loc 1 66 0
  68 002c C362     		str	r3, [r0, #44]
  67:Src/can.c     ****   if (HAL_CAN_Init(&hcan) != HAL_OK)
  69              		.loc 1 67 0
  70 002e FFF7FEFF 		bl	HAL_CAN_Init
  71              	.LVL0:
  72 0032 0028     		cmp	r0, #0
  73 0034 00D1     		bne	.L3
  74              	.L1:
  68:Src/can.c     ****   {
  69:Src/can.c     ****     _Error_Handler(__FILE__, __LINE__);
  70:Src/can.c     ****   }
  71:Src/can.c     **** 
  72:Src/can.c     **** }
  75              		.loc 1 72 0
  76              		@ sp needed
  77 0036 10BD     		pop	{r4, pc}
  78              	.L3:
  69:Src/can.c     ****   }
  79              		.loc 1 69 0
  80 0038 4521     		movs	r1, #69
  81 003a 0448     		ldr	r0, .L4+8
  82 003c FFF7FEFF 		bl	_Error_Handler
  83              	.LVL1:
  84              		.loc 1 72 0
  85 0040 F9E7     		b	.L1
  86              	.L5:
  87 0042 C046     		.align	2
  88              	.L4:
  89 0044 00000000 		.word	hcan
  90 0048 00640040 		.word	1073767424
  91 004c 00000000 		.word	.LC1
  92              		.cfi_endproc
  93              	.LFE35:
  95              		.section	.text.HAL_CAN_MspInit,"ax",%progbits
  96              		.align	1
  97              		.global	HAL_CAN_MspInit
  98              		.syntax unified
  99              		.code	16
 100              		.thumb_func
ARM GAS  C:\Users\Wojciech\AppData\Local\Temp\ccemUAgQ.s 			page 4


 101              		.fpu softvfp
 103              	HAL_CAN_MspInit:
 104              	.LFB36:
  73:Src/can.c     **** 
  74:Src/can.c     **** void HAL_CAN_MspInit(CAN_HandleTypeDef* canHandle)
  75:Src/can.c     **** {
 105              		.loc 1 75 0
 106              		.cfi_startproc
 107              		@ args = 0, pretend = 0, frame = 24
 108              		@ frame_needed = 0, uses_anonymous_args = 0
 109              	.LVL2:
 110 0000 00B5     		push	{lr}
 111              	.LCFI1:
 112              		.cfi_def_cfa_offset 4
 113              		.cfi_offset 14, -4
 114 0002 87B0     		sub	sp, sp, #28
 115              	.LCFI2:
 116              		.cfi_def_cfa_offset 32
  76:Src/can.c     **** 
  77:Src/can.c     ****   GPIO_InitTypeDef GPIO_InitStruct;
  78:Src/can.c     ****   if(canHandle->Instance==CAN)
 117              		.loc 1 78 0
 118 0004 0268     		ldr	r2, [r0]
 119 0006 134B     		ldr	r3, .L9
 120 0008 9A42     		cmp	r2, r3
 121 000a 01D0     		beq	.L8
 122              	.LVL3:
 123              	.L6:
  79:Src/can.c     ****   {
  80:Src/can.c     ****   /* USER CODE BEGIN CAN_MspInit 0 */
  81:Src/can.c     **** 
  82:Src/can.c     ****   /* USER CODE END CAN_MspInit 0 */
  83:Src/can.c     ****     /* Peripheral clock enable */
  84:Src/can.c     ****     __HAL_RCC_CAN1_CLK_ENABLE();
  85:Src/can.c     ****   
  86:Src/can.c     ****     /**CAN GPIO Configuration    
  87:Src/can.c     ****     PA11     ------> CAN_RX
  88:Src/can.c     ****     PA12     ------> CAN_TX 
  89:Src/can.c     ****     */
  90:Src/can.c     ****     GPIO_InitStruct.Pin = GPIO_PIN_11|GPIO_PIN_12;
  91:Src/can.c     ****     GPIO_InitStruct.Mode = GPIO_MODE_AF_PP;
  92:Src/can.c     ****     GPIO_InitStruct.Pull = GPIO_PULLDOWN;
  93:Src/can.c     ****     GPIO_InitStruct.Speed = GPIO_SPEED_FREQ_HIGH;
  94:Src/can.c     ****     GPIO_InitStruct.Alternate = GPIO_AF4_CAN;
  95:Src/can.c     ****     HAL_GPIO_Init(GPIOA, &GPIO_InitStruct);
  96:Src/can.c     **** 
  97:Src/can.c     ****     /* CAN interrupt Init */
  98:Src/can.c     ****     HAL_NVIC_SetPriority(CEC_CAN_IRQn, 0, 0);
  99:Src/can.c     ****     HAL_NVIC_EnableIRQ(CEC_CAN_IRQn);
 100:Src/can.c     ****   /* USER CODE BEGIN CAN_MspInit 1 */
 101:Src/can.c     **** 
 102:Src/can.c     ****   /* USER CODE END CAN_MspInit 1 */
 103:Src/can.c     ****   }
 104:Src/can.c     **** }
 124              		.loc 1 104 0
 125 000c 07B0     		add	sp, sp, #28
 126              		@ sp needed
ARM GAS  C:\Users\Wojciech\AppData\Local\Temp\ccemUAgQ.s 			page 5


 127 000e 00BD     		pop	{pc}
 128              	.LVL4:
 129              	.L8:
 130              	.LBB2:
  84:Src/can.c     ****   
 131              		.loc 1 84 0
 132 0010 114A     		ldr	r2, .L9+4
 133 0012 D169     		ldr	r1, [r2, #28]
 134 0014 8020     		movs	r0, #128
 135              	.LVL5:
 136 0016 8004     		lsls	r0, r0, #18
 137 0018 0143     		orrs	r1, r0
 138 001a D161     		str	r1, [r2, #28]
 139 001c D369     		ldr	r3, [r2, #28]
 140 001e 0340     		ands	r3, r0
 141 0020 0093     		str	r3, [sp]
 142 0022 009B     		ldr	r3, [sp]
 143              	.LBE2:
  90:Src/can.c     ****     GPIO_InitStruct.Mode = GPIO_MODE_AF_PP;
 144              		.loc 1 90 0
 145 0024 C023     		movs	r3, #192
 146 0026 5B01     		lsls	r3, r3, #5
 147 0028 0193     		str	r3, [sp, #4]
  91:Src/can.c     ****     GPIO_InitStruct.Pull = GPIO_PULLDOWN;
 148              		.loc 1 91 0
 149 002a 0223     		movs	r3, #2
 150 002c 0293     		str	r3, [sp, #8]
  92:Src/can.c     ****     GPIO_InitStruct.Speed = GPIO_SPEED_FREQ_HIGH;
 151              		.loc 1 92 0
 152 002e 0393     		str	r3, [sp, #12]
  93:Src/can.c     ****     GPIO_InitStruct.Alternate = GPIO_AF4_CAN;
 153              		.loc 1 93 0
 154 0030 0133     		adds	r3, r3, #1
 155 0032 0493     		str	r3, [sp, #16]
  94:Src/can.c     ****     HAL_GPIO_Init(GPIOA, &GPIO_InitStruct);
 156              		.loc 1 94 0
 157 0034 0133     		adds	r3, r3, #1
 158 0036 0593     		str	r3, [sp, #20]
  95:Src/can.c     **** 
 159              		.loc 1 95 0
 160 0038 01A9     		add	r1, sp, #4
 161 003a 9020     		movs	r0, #144
 162 003c C005     		lsls	r0, r0, #23
 163 003e FFF7FEFF 		bl	HAL_GPIO_Init
 164              	.LVL6:
  98:Src/can.c     ****     HAL_NVIC_EnableIRQ(CEC_CAN_IRQn);
 165              		.loc 1 98 0
 166 0042 0022     		movs	r2, #0
 167 0044 0021     		movs	r1, #0
 168 0046 1E20     		movs	r0, #30
 169 0048 FFF7FEFF 		bl	HAL_NVIC_SetPriority
 170              	.LVL7:
  99:Src/can.c     ****   /* USER CODE BEGIN CAN_MspInit 1 */
 171              		.loc 1 99 0
 172 004c 1E20     		movs	r0, #30
 173 004e FFF7FEFF 		bl	HAL_NVIC_EnableIRQ
 174              	.LVL8:
ARM GAS  C:\Users\Wojciech\AppData\Local\Temp\ccemUAgQ.s 			page 6


 175              		.loc 1 104 0
 176 0052 DBE7     		b	.L6
 177              	.L10:
 178              		.align	2
 179              	.L9:
 180 0054 00640040 		.word	1073767424
 181 0058 00100240 		.word	1073876992
 182              		.cfi_endproc
 183              	.LFE36:
 185              		.section	.text.HAL_CAN_MspDeInit,"ax",%progbits
 186              		.align	1
 187              		.global	HAL_CAN_MspDeInit
 188              		.syntax unified
 189              		.code	16
 190              		.thumb_func
 191              		.fpu softvfp
 193              	HAL_CAN_MspDeInit:
 194              	.LFB37:
 105:Src/can.c     **** 
 106:Src/can.c     **** void HAL_CAN_MspDeInit(CAN_HandleTypeDef* canHandle)
 107:Src/can.c     **** {
 195              		.loc 1 107 0
 196              		.cfi_startproc
 197              		@ args = 0, pretend = 0, frame = 0
 198              		@ frame_needed = 0, uses_anonymous_args = 0
 199              	.LVL9:
 200 0000 10B5     		push	{r4, lr}
 201              	.LCFI3:
 202              		.cfi_def_cfa_offset 8
 203              		.cfi_offset 4, -8
 204              		.cfi_offset 14, -4
 108:Src/can.c     **** 
 109:Src/can.c     ****   if(canHandle->Instance==CAN)
 205              		.loc 1 109 0
 206 0002 0268     		ldr	r2, [r0]
 207 0004 094B     		ldr	r3, .L14
 208 0006 9A42     		cmp	r2, r3
 209 0008 00D0     		beq	.L13
 210              	.LVL10:
 211              	.L11:
 110:Src/can.c     ****   {
 111:Src/can.c     ****   /* USER CODE BEGIN CAN_MspDeInit 0 */
 112:Src/can.c     **** 
 113:Src/can.c     ****   /* USER CODE END CAN_MspDeInit 0 */
 114:Src/can.c     ****     /* Peripheral clock disable */
 115:Src/can.c     ****     __HAL_RCC_CAN1_CLK_DISABLE();
 116:Src/can.c     ****   
 117:Src/can.c     ****     /**CAN GPIO Configuration    
 118:Src/can.c     ****     PA11     ------> CAN_RX
 119:Src/can.c     ****     PA12     ------> CAN_TX 
 120:Src/can.c     ****     */
 121:Src/can.c     ****     HAL_GPIO_DeInit(GPIOA, GPIO_PIN_11|GPIO_PIN_12);
 122:Src/can.c     **** 
 123:Src/can.c     ****     /* CAN interrupt Deinit */
 124:Src/can.c     ****     HAL_NVIC_DisableIRQ(CEC_CAN_IRQn);
 125:Src/can.c     ****   /* USER CODE BEGIN CAN_MspDeInit 1 */
 126:Src/can.c     **** 
ARM GAS  C:\Users\Wojciech\AppData\Local\Temp\ccemUAgQ.s 			page 7


 127:Src/can.c     ****   /* USER CODE END CAN_MspDeInit 1 */
 128:Src/can.c     ****   }
 129:Src/can.c     **** } 
 212              		.loc 1 129 0
 213              		@ sp needed
 214 000a 10BD     		pop	{r4, pc}
 215              	.LVL11:
 216              	.L13:
 115:Src/can.c     ****   
 217              		.loc 1 115 0
 218 000c 084A     		ldr	r2, .L14+4
 219 000e D369     		ldr	r3, [r2, #28]
 220 0010 0849     		ldr	r1, .L14+8
 221 0012 0B40     		ands	r3, r1
 222 0014 D361     		str	r3, [r2, #28]
 121:Src/can.c     **** 
 223              		.loc 1 121 0
 224 0016 C021     		movs	r1, #192
 225 0018 4901     		lsls	r1, r1, #5
 226 001a 9020     		movs	r0, #144
 227              	.LVL12:
 228 001c C005     		lsls	r0, r0, #23
 229 001e FFF7FEFF 		bl	HAL_GPIO_DeInit
 230              	.LVL13:
 124:Src/can.c     ****   /* USER CODE BEGIN CAN_MspDeInit 1 */
 231              		.loc 1 124 0
 232 0022 1E20     		movs	r0, #30
 233 0024 FFF7FEFF 		bl	HAL_NVIC_DisableIRQ
 234              	.LVL14:
 235              		.loc 1 129 0
 236 0028 EFE7     		b	.L11
 237              	.L15:
 238 002a C046     		.align	2
 239              	.L14:
 240 002c 00640040 		.word	1073767424
 241 0030 00100240 		.word	1073876992
 242 0034 FFFFFFFD 		.word	-33554433
 243              		.cfi_endproc
 244              	.LFE37:
 246              		.comm	hcan,68,4
 247              		.section	.rodata.MX_CAN_Init.str1.4,"aMS",%progbits,1
 248              		.align	2
 249              	.LC1:
 250 0000 5372632F 		.ascii	"Src/can.c\000"
 250      63616E2E 
 250      6300
 251              		.text
 252              	.Letext0:
 253              		.file 2 "c:\\program files (x86)\\gnu tools arm embedded\\6 2017-q2-update\\arm-none-eabi\\include
 254              		.file 3 "c:\\program files (x86)\\gnu tools arm embedded\\6 2017-q2-update\\arm-none-eabi\\include
 255              		.file 4 "Drivers/CMSIS/Device/ST/STM32F0xx/Include/system_stm32f0xx.h"
 256              		.file 5 "Drivers/CMSIS/Device/ST/STM32F0xx/Include/stm32f042x6.h"
 257              		.file 6 "Drivers/CMSIS/Device/ST/STM32F0xx/Include/stm32f0xx.h"
 258              		.file 7 "c:\\program files (x86)\\gnu tools arm embedded\\6 2017-q2-update\\arm-none-eabi\\include
 259              		.file 8 "c:\\program files (x86)\\gnu tools arm embedded\\6 2017-q2-update\\arm-none-eabi\\include
 260              		.file 9 "c:\\program files (x86)\\gnu tools arm embedded\\6 2017-q2-update\\lib\\gcc\\arm-none-eab
 261              		.file 10 "c:\\program files (x86)\\gnu tools arm embedded\\6 2017-q2-update\\arm-none-eabi\\includ
ARM GAS  C:\Users\Wojciech\AppData\Local\Temp\ccemUAgQ.s 			page 8


 262              		.file 11 "Drivers/STM32F0xx_HAL_Driver/Inc/stm32f0xx_hal_def.h"
 263              		.file 12 "Drivers/STM32F0xx_HAL_Driver/Inc/stm32f0xx_hal_gpio.h"
 264              		.file 13 "Drivers/STM32F0xx_HAL_Driver/Inc/stm32f0xx_hal_can.h"
 265              		.file 14 "Inc/can.h"
 266              		.file 15 "Drivers/STM32F0xx_HAL_Driver/Inc/stm32f0xx_hal_cortex.h"
ARM GAS  C:\Users\Wojciech\AppData\Local\Temp\ccemUAgQ.s 			page 9

